; ModuleID = 'source-C-CXX/12/744.c'
source_filename = "source-C-CXX/12/744.c"
target datalayout = "e-m:e-p270:32:32-p271:32:32-p272:64:64-i64:64-f80:128-n8:16:32:64-S128"
target triple = "x86_64-pc-linux-gnu"

%struct._IO_FILE = type { i32, i8*, i8*, i8*, i8*, i8*, i8*, i8*, i8*, i8*, i8*, i8*, %struct._IO_marker*, %struct._IO_FILE*, i32, i32, i64, i16, i8, [1 x i8], i8*, i64, %struct._IO_codecvt*, %struct._IO_wide_data*, %struct._IO_FILE*, i8*, i64, i32, [20 x i8] }
%struct._IO_marker = type opaque
%struct._IO_codecvt = type opaque
%struct._IO_wide_data = type opaque

@.str = private unnamed_addr constant [3 x i8] c"%d\00", align 1
@.str.1 = private unnamed_addr constant [4 x i8] c" %d\00", align 1
@stdin = external local_unnamed_addr global %struct._IO_FILE*, align 8

; Function Attrs: nofree nounwind sspstrong uwtable
define dso_local i32 @main() local_unnamed_addr #0 {
  %1 = alloca i32, align 4
  %2 = alloca [100 x i32], align 16
  %3 = alloca i32, align 4
  %4 = alloca i32, align 4
  %5 = bitcast i32* %1 to i8*
  call void @llvm.lifetime.start.p0i8(i64 4, i8* nonnull %5) #3
  %6 = call i32 (i8*, ...) @__isoc99_scanf(i8* getelementptr inbounds ([3 x i8], [3 x i8]* @.str, i64 0, i64 0), i32* nonnull %1)
  %7 = bitcast [100 x i32]* %2 to i8*
  call void @llvm.lifetime.start.p0i8(i64 400, i8* nonnull %7) #3
  %8 = bitcast i32* %3 to i8*
  call void @llvm.lifetime.start.p0i8(i64 4, i8* nonnull %8) #3
  %9 = call i32 (i8*, ...) @__isoc99_scanf(i8* getelementptr inbounds ([3 x i8], [3 x i8]* @.str, i64 0, i64 0), i32* nonnull %3)
  %10 = load i32, i32* %3, align 4, !tbaa !5
  %11 = call i32 (i8*, ...) @printf(i8* nonnull dereferenceable(1) getelementptr inbounds ([3 x i8], [3 x i8]* @.str, i64 0, i64 0), i32 %10)
  %12 = load i32, i32* %3, align 4, !tbaa !5
  %13 = getelementptr inbounds [100 x i32], [100 x i32]* %2, i64 0, i64 0
  store i32 %12, i32* %13, align 16, !tbaa !5
  %14 = bitcast i32* %4 to i8*
  %15 = load i32, i32* %1, align 4, !tbaa !5
  %16 = icmp sgt i32 %15, 1
  br i1 %16, label %22, label %17

17:                                               ; preds = %86, %0
  %18 = load %struct._IO_FILE*, %struct._IO_FILE** @stdin, align 8, !tbaa !9
  %19 = call i32 @getc(%struct._IO_FILE* %18) #3
  %20 = load %struct._IO_FILE*, %struct._IO_FILE** @stdin, align 8, !tbaa !9
  %21 = call i32 @getc(%struct._IO_FILE* %20) #3
  call void @llvm.lifetime.end.p0i8(i64 4, i8* nonnull %8) #3
  call void @llvm.lifetime.end.p0i8(i64 400, i8* nonnull %7) #3
  call void @llvm.lifetime.end.p0i8(i64 4, i8* nonnull %5) #3
  ret i32 0

22:                                               ; preds = %0, %86
  %23 = phi i32 [ %88, %86 ], [ 1, %0 ]
  %24 = phi i32 [ %87, %86 ], [ 1, %0 ]
  call void @llvm.lifetime.start.p0i8(i64 4, i8* nonnull %14) #3
  %25 = call i32 (i8*, ...) @__isoc99_scanf(i8* getelementptr inbounds ([3 x i8], [3 x i8]* @.str, i64 0, i64 0), i32* nonnull %4)
  %26 = load i32, i32* %4, align 4
  %27 = icmp sgt i32 %24, 0
  br i1 %27, label %28, label %80

28:                                               ; preds = %22
  %29 = zext i32 %24 to i64
  %30 = add nsw i64 %29, -1
  %31 = and i64 %29, 3
  %32 = icmp ult i64 %30, 3
  br i1 %32, label %35, label %33

33:                                               ; preds = %28
  %34 = and i64 %29, 4294967292
  br label %54

35:                                               ; preds = %54, %28
  %36 = phi i32 [ undef, %28 ], [ %76, %54 ]
  %37 = phi i64 [ 0, %28 ], [ %77, %54 ]
  %38 = phi i32 [ 0, %28 ], [ %76, %54 ]
  %39 = icmp eq i64 %31, 0
  br i1 %39, label %51, label %40

40:                                               ; preds = %35, %40
  %41 = phi i64 [ %48, %40 ], [ %37, %35 ]
  %42 = phi i32 [ %47, %40 ], [ %38, %35 ]
  %43 = phi i64 [ %49, %40 ], [ %31, %35 ]
  %44 = getelementptr inbounds [100 x i32], [100 x i32]* %2, i64 0, i64 %41
  %45 = load i32, i32* %44, align 4, !tbaa !5
  %46 = icmp eq i32 %26, %45
  %47 = select i1 %46, i32 1, i32 %42
  %48 = add nuw nsw i64 %41, 1
  %49 = add i64 %43, -1
  %50 = icmp eq i64 %49, 0
  br i1 %50, label %51, label %40, !llvm.loop !11

51:                                               ; preds = %40, %35
  %52 = phi i32 [ %36, %35 ], [ %47, %40 ]
  %53 = icmp eq i32 %52, 0
  br i1 %53, label %80, label %86

54:                                               ; preds = %54, %33
  %55 = phi i64 [ 0, %33 ], [ %77, %54 ]
  %56 = phi i32 [ 0, %33 ], [ %76, %54 ]
  %57 = phi i64 [ %34, %33 ], [ %78, %54 ]
  %58 = getelementptr inbounds [100 x i32], [100 x i32]* %2, i64 0, i64 %55
  %59 = load i32, i32* %58, align 16, !tbaa !5
  %60 = icmp eq i32 %26, %59
  %61 = or i64 %55, 1
  %62 = getelementptr inbounds [100 x i32], [100 x i32]* %2, i64 0, i64 %61
  %63 = load i32, i32* %62, align 4, !tbaa !5
  %64 = icmp eq i32 %26, %63
  %65 = or i64 %55, 2
  %66 = getelementptr inbounds [100 x i32], [100 x i32]* %2, i64 0, i64 %65
  %67 = load i32, i32* %66, align 8, !tbaa !5
  %68 = icmp eq i32 %26, %67
  %69 = or i64 %55, 3
  %70 = getelementptr inbounds [100 x i32], [100 x i32]* %2, i64 0, i64 %69
  %71 = load i32, i32* %70, align 4, !tbaa !5
  %72 = icmp eq i32 %26, %71
  %73 = select i1 %72, i1 true, i1 %68
  %74 = select i1 %73, i1 true, i1 %64
  %75 = select i1 %74, i1 true, i1 %60
  %76 = select i1 %75, i32 1, i32 %56
  %77 = add nuw nsw i64 %55, 4
  %78 = add i64 %57, -4
  %79 = icmp eq i64 %78, 0
  br i1 %79, label %35, label %54, !llvm.loop !13

80:                                               ; preds = %22, %51
  %81 = call i32 (i8*, ...) @printf(i8* nonnull dereferenceable(1) getelementptr inbounds ([4 x i8], [4 x i8]* @.str.1, i64 0, i64 0), i32 %26)
  %82 = load i32, i32* %4, align 4, !tbaa !5
  %83 = sext i32 %24 to i64
  %84 = getelementptr inbounds [100 x i32], [100 x i32]* %2, i64 0, i64 %83
  store i32 %82, i32* %84, align 4, !tbaa !5
  %85 = add nsw i32 %24, 1
  br label %86

86:                                               ; preds = %80, %51
  %87 = phi i32 [ %85, %80 ], [ %24, %51 ]
  call void @llvm.lifetime.end.p0i8(i64 4, i8* nonnull %14) #3
  %88 = add nuw nsw i32 %23, 1
  %89 = load i32, i32* %1, align 4, !tbaa !5
  %90 = icmp slt i32 %88, %89
  br i1 %90, label %22, label %17, !llvm.loop !15
}

; Function Attrs: argmemonly mustprogress nofree nosync nounwind willreturn
declare void @llvm.lifetime.start.p0i8(i64 immarg, i8* nocapture) #1

; Function Attrs: nofree nounwind
declare noundef i32 @__isoc99_scanf(i8* nocapture noundef readonly, ...) local_unnamed_addr #2

; Function Attrs: nofree nounwind
declare noundef i32 @printf(i8* nocapture noundef readonly, ...) local_unnamed_addr #2

; Function Attrs: argmemonly mustprogress nofree nosync nounwind willreturn
declare void @llvm.lifetime.end.p0i8(i64 immarg, i8* nocapture) #1

; Function Attrs: nofree nounwind
declare noundef i32 @getc(%struct._IO_FILE* nocapture noundef) local_unnamed_addr #2


!llvm.module.flags = !{!0, !1, !2, !3}
!llvm.ident = !{!4}

!0 = !{i32 1, !"wchar_size", i32 4}
!1 = !{i32 7, !"PIC Level", i32 2}
!2 = !{i32 7, !"PIE Level", i32 2}
!3 = !{i32 7, !"uwtable", i32 1}
!4 = !{!"clang version 13.0.0"}
!5 = !{!6, !6, i64 0}
!6 = !{!"int", !7, i64 0}
!7 = !{!"omnipotent char", !8, i64 0}
!8 = !{!"Simple C/C++ TBAA"}
!9 = !{!10, !10, i64 0}
!10 = !{!"any pointer", !7, i64 0}
!11 = distinct !{!11, !12}
!12 = !{!"llvm.loop.unroll.disable"}
!13 = distinct !{!13, !14}
!14 = !{!"llvm.loop.mustprogress"}
!15 = distinct !{!15, !14}
